; ModuleID = 'source-C-CXX/26/872.c'
source_filename = "source-C-CXX/26/872.c"
target datalayout = "e-m:e-p270:32:32-p271:32:32-p272:64:64-i64:64-f80:128-n8:16:32:64-S128"
target triple = "x86_64-pc-linux-gnu"

@.str = private unnamed_addr constant [3 x i8] c"%d\00", align 1
@.str.1 = private unnamed_addr constant [12 x i8] c"%lf %lf %lf\00", align 1
@.str.2 = private unnamed_addr constant [17 x i8] c"x1=%.5f;x2=%.5f\0A\00", align 1
@.str.3 = private unnamed_addr constant [12 x i8] c"x1=x2=%.5f\0A\00", align 1
@.str.4 = private unnamed_addr constant [29 x i8] c"x1=%.5f+%.5fi;x2=%.5f-%.5fi\0A\00", align 1

; Function Attrs: nofree nounwind sspstrong uwtable
define dso_local i32 @main() local_unnamed_addr #0 {
  %1 = alloca i32, align 4
  %2 = alloca double, align 8
  %3 = alloca double, align 8
  %4 = alloca double, align 8
  %5 = bitcast i32* %1 to i8*
  call void @llvm.lifetime.start.p0i8(i64 4, i8* nonnull %5) #5
  %6 = call i32 (i8*, ...) @__isoc99_scanf(i8* getelementptr inbounds ([3 x i8], [3 x i8]* @.str, i64 0, i64 0), i32* nonnull %1)
  %7 = bitcast double* %2 to i8*
  %8 = bitcast double* %3 to i8*
  %9 = bitcast double* %4 to i8*
  %10 = load i32, i32* %1, align 4, !tbaa !5
  %11 = icmp sgt i32 %10, 0
  br i1 %11, label %12, label %68

12:                                               ; preds = %0, %64
  %13 = phi i32 [ %65, %64 ], [ 0, %0 ]
  call void @llvm.lifetime.start.p0i8(i64 8, i8* nonnull %7) #5
  call void @llvm.lifetime.start.p0i8(i64 8, i8* nonnull %8) #5
  call void @llvm.lifetime.start.p0i8(i64 8, i8* nonnull %9) #5
  %14 = call i32 (i8*, ...) @__isoc99_scanf(i8* getelementptr inbounds ([12 x i8], [12 x i8]* @.str.1, i64 0, i64 0), double* nonnull %2, double* nonnull %3, double* nonnull %4)
  %15 = load double, double* %3, align 8, !tbaa !9
  %16 = fmul double %15, %15
  %17 = load double, double* %2, align 8, !tbaa !9
  %18 = fmul double %17, 4.000000e+00
  %19 = load double, double* %4, align 8, !tbaa !9
  %20 = fmul double %18, %19
  %21 = fsub double %16, %20
  %22 = fcmp ogt double %21, 0.000000e+00
  br i1 %22, label %23, label %42

23:                                               ; preds = %12
  %24 = call double @sqrt(double %21) #5
  %25 = fsub double %24, %15
  %26 = load double, double* %2, align 8, !tbaa !9
  %27 = fmul double %26, 2.000000e+00
  %28 = fdiv double %25, %27
  %29 = load double, double* %3, align 8, !tbaa !9
  %30 = fneg double %29
  %31 = fmul double %29, %29
  %32 = fmul double %26, 4.000000e+00
  %33 = load double, double* %4, align 8, !tbaa !9
  %34 = fmul double %32, %33
  %35 = fsub double %31, %34
  %36 = call double @sqrt(double %35) #5
  %37 = fsub double %30, %36
  %38 = load double, double* %2, align 8, !tbaa !9
  %39 = fmul double %38, 2.000000e+00
  %40 = fdiv double %37, %39
  %41 = call i32 (i8*, ...) @printf(i8* nonnull dereferenceable(1) getelementptr inbounds ([17 x i8], [17 x i8]* @.str.2, i64 0, i64 0), double %28, double %40)
  br label %64

42:                                               ; preds = %12
  %43 = fcmp oeq double %21, 0.000000e+00
  br i1 %43, label %44, label %51

44:                                               ; preds = %42
  %45 = call double @sqrt(double %21) #5
  %46 = fsub double %45, %15
  %47 = load double, double* %2, align 8, !tbaa !9
  %48 = fmul double %47, 2.000000e+00
  %49 = fdiv double %46, %48
  %50 = call i32 (i8*, ...) @printf(i8* nonnull dereferenceable(1) getelementptr inbounds ([12 x i8], [12 x i8]* @.str.3, i64 0, i64 0), double %49)
  br label %64

51:                                               ; preds = %42
  %52 = fneg double %15
  %53 = fmul double %17, 2.000000e+00
  %54 = fdiv double %52, %53
  %55 = fsub double %20, %16
  %56 = call double @sqrt(double %55) #5
  %57 = load double, double* %2, align 8, !tbaa !9
  %58 = fmul double %57, 2.000000e+00
  %59 = fdiv double %56, %58
  %60 = call double @llvm.fabs.f64(double %54)
  %61 = fcmp olt double %60, 1.000000e-05
  %62 = select i1 %61, double 0.000000e+00, double %54
  %63 = call i32 (i8*, ...) @printf(i8* nonnull dereferenceable(1) getelementptr inbounds ([29 x i8], [29 x i8]* @.str.4, i64 0, i64 0), double %62, double %59, double %62, double %59)
  br label %64

64:                                               ; preds = %44, %51, %23
  call void @llvm.lifetime.end.p0i8(i64 8, i8* nonnull %9) #5
  call void @llvm.lifetime.end.p0i8(i64 8, i8* nonnull %8) #5
  call void @llvm.lifetime.end.p0i8(i64 8, i8* nonnull %7) #5
  %65 = add nuw nsw i32 %13, 1
  %66 = load i32, i32* %1, align 4, !tbaa !5
  %67 = icmp slt i32 %65, %66
  br i1 %67, label %12, label %68, !llvm.loop !11

68:                                               ; preds = %64, %0
  call void @llvm.lifetime.end.p0i8(i64 4, i8* nonnull %5) #5
  ret i32 0
}

; Function Attrs: argmemonly mustprogress nofree nosync nounwind willreturn
declare void @llvm.lifetime.start.p0i8(i64 immarg, i8* nocapture) #1

; Function Attrs: nofree nounwind
declare noundef i32 @__isoc99_scanf(i8* nocapture noundef readonly, ...) local_unnamed_addr #2

; Function Attrs: mustprogress nofree nounwind willreturn
declare double @sqrt(double) local_unnamed_addr #3

; Function Attrs: nofree nounwind
declare noundef i32 @printf(i8* nocapture noundef readonly, ...) local_unnamed_addr #2

; Function Attrs: mustprogress nofree nosync nounwind readnone speculatable willreturn
declare double @llvm.fabs.f64(double) #4

; Function Attrs: argmemonly mustprogress nofree nosync nounwind willreturn
declare void @llvm.lifetime.end.p0i8(i64 immarg, i8* nocapture) #1


!llvm.module.flags = !{!0, !1, !2, !3}
!llvm.ident = !{!4}

!0 = !{i32 1, !"wchar_size", i32 4}
!1 = !{i32 7, !"PIC Level", i32 2}
!2 = !{i32 7, !"PIE Level", i32 2}
!3 = !{i32 7, !"uwtable", i32 1}
!4 = !{!"clang version 13.0.0"}
!5 = !{!6, !6, i64 0}
!6 = !{!"int", !7, i64 0}
!7 = !{!"omnipotent char", !8, i64 0}
!8 = !{!"Simple C/C++ TBAA"}
!9 = !{!10, !10, i64 0}
!10 = !{!"double", !7, i64 0}
!11 = distinct !{!11, !12}
!12 = !{!"llvm.loop.mustprogress"}
